ccopy_reg
_reconstructor
p1
(castropy.modeling.polynomial
Polynomial2D
p2
c__builtin__
object
p3
NtRp4
(dp5
S'y_domain'
p6
(lp7
I-1
aI1
asS'x_domain'
p8
(lp9
I-1
aI1
asS'_order'
p10
F10
sS'_n_models'
p11
I1
sS'y_window'
p12
(lp13
I-1
aI1
asS'_degree'
p14
I3
sS'_name'
p15
NsS'_parameters'
p16
cnumpy.core.multiarray
_reconstruct
p17
(cnumpy
ndarray
p18
(I0
tS'b'
tRp19
(I1
(I10
tcnumpy
dtype
p20
(S'f8'
I0
I1
tRp21
(I3
S'<'
NNNI-1
I-1
I0
tbI00
S'E\xbb\xf1\xe5\xff \xb4@\xa0\x8d`\x83\xca\x9a\xe3?\xa0hF\xb8q\xc7\xd7\xbe\xc0\x86x\x1a\xf9]=\xbe\xe8t\xa8\xe6A\xfao\xc0@SI#\x00\xef\xdf\xbf\x00\xa1t\x83\xda:\x9f\xbf\xd8x\xd5y\x06\x02\x82?\x80\x13\nv\x82\xc8\x15\xbf@aY\x08\xc5^\x9d>'
tbsS'_param_names'
p22
(Vc0_0
p23
Vc1_0
p24
Vc2_0
p25
Vc3_0
p26
Vc0_1
p27
Vc0_2
p28
Vc0_3
p29
Vc1_1
p30
Vc1_2
p31
Vc2_1
p32
tp33
sS'_model_set_axis'
p34
I00
sS'x_window'
p35
(lp36
I-1
aI1
asS'_constraints'
p37
(dp38
Vineqcons
p39
(lp40
sVeqcons
p41
(lp42
sVbounds
p43
(dp44
g26
(NNtp45
sg23
(NNtp46
sg27
(NNtp47
sg28
(NNtp48
sg29
(NNtp49
sg30
(NNtp50
sg24
(NNtp51
sg31
(NNtp52
sg25
(NNtp53
sg32
(NNtp54
ssVtied
p55
(dp56
g26
I00
sg23
I00
sg27
I00
sg28
I00
sg29
I00
sg30
I00
sg24
I00
sg31
I00
sg25
I00
sg32
I00
ssVfixed
p57
(dp58
g26
I00
sg23
I00
sg27
I00
sg28
I00
sg29
I00
sg30
I00
sg24
I00
sg31
I00
sg25
I00
sg32
I00
sssS'_param_metrics'
p59
ccollections
defaultdict
p60
(c__builtin__
dict
p61
tRp62
S'c3_0'
p63
(dp64
Vshape
p65
(tsVslice
p66
c__builtin__
slice
p67
(I3
I4
NtRp68
sVorig_unit
p69
NsVraw_unit
p70
NssS'c0_0'
p71
(dp72
g65
(tsg66
g67
(I0
I1
NtRp73
sg69
Nsg70
NssS'c0_1'
p74
(dp75
g65
(tsg66
g67
(I4
I5
NtRp76
sg69
Nsg70
NssS'c0_2'
p77
(dp78
g65
(tsg66
g67
(I5
I6
NtRp79
sg69
Nsg70
NssS'c0_3'
p80
(dp81
g65
(tsg66
g67
(I6
I7
NtRp82
sg69
Nsg70
NssS'c1_1'
p83
(dp84
g65
(tsg66
g67
(I7
I8
NtRp85
sg69
Nsg70
NssS'c1_0'
p86
(dp87
g65
(tsg66
g67
(I1
I2
NtRp88
sg69
Nsg70
NssS'c1_2'
p89
(dp90
g65
(tsg66
g67
(I8
I9
NtRp91
sg69
Nsg70
NssS'c2_0'
p92
(dp93
g65
(tsg66
g67
(I2
I3
NtRp94
sg69
Nsg70
NssS'c2_1'
p95
(dp96
g65
(tsg66
g67
(I9
I10
NtRp97
sg69
Nsg70
Nsssb.