ccopy_reg
_reconstructor
p1
(castropy.modeling.polynomial
Polynomial2D
p2
c__builtin__
object
p3
NtRp4
(dp5
S'y_domain'
p6
(lp7
I-1
aI1
asS'x_domain'
p8
(lp9
I-1
aI1
asS'_order'
p10
F10
sS'_n_models'
p11
I1
sS'y_window'
p12
(lp13
I-1
aI1
asS'_degree'
p14
I3
sS'_name'
p15
NsS'_parameters'
p16
cnumpy.core.multiarray
_reconstruct
p17
(cnumpy
ndarray
p18
(I0
tS'b'
tRp19
(I1
(I10
tcnumpy
dtype
p20
(S'f8'
I0
I1
tRp21
(I3
S'<'
NNNI-1
I-1
I0
tbI00
S'\x94\xe6\xd4\xfa\x97\xc5\x0e\xc1TT\xffY\x974\xff?\xed\xe0.\xf9\xe8\x07\xfa>\x94\xbc;\x882\x93M\xbeWZ3,\x1aM\xed@\xed\xae\x95\x9f\xa0*\xb2\xc0l\xa0\x06#\xb4\xbd]@\x867:\xd7\xd1N\xba\xbf\xfd\xec\xd6\xde\xbfos?AK\xaaL\xb5\xbe\xba\xbe'
tbsS'_param_names'
p22
(Vc0_0
p23
Vc1_0
p24
Vc2_0
p25
Vc3_0
p26
Vc0_1
p27
Vc0_2
p28
Vc0_3
p29
Vc1_1
p30
Vc1_2
p31
Vc2_1
p32
tp33
sS'_model_set_axis'
p34
I00
sS'x_window'
p35
(lp36
I-1
aI1
asS'_constraints'
p37
(dp38
Vineqcons
p39
(lp40
sVeqcons
p41
(lp42
sVbounds
p43
(dp44
g26
(NNtp45
sg23
(NNtp46
sg27
(NNtp47
sg28
(NNtp48
sg29
(NNtp49
sg30
(NNtp50
sg24
(NNtp51
sg31
(NNtp52
sg25
(NNtp53
sg32
(NNtp54
ssVtied
p55
(dp56
g26
I00
sg23
I00
sg27
I00
sg28
I00
sg29
I00
sg30
I00
sg24
I00
sg31
I00
sg25
I00
sg32
I00
ssVfixed
p57
(dp58
g26
I00
sg23
I00
sg27
I00
sg28
I00
sg29
I00
sg30
I00
sg24
I00
sg31
I00
sg25
I00
sg32
I00
sssS'_param_metrics'
p59
ccollections
defaultdict
p60
(c__builtin__
dict
p61
tRp62
g26
(dp63
Vshape
p64
(tsVslice
p65
c__builtin__
slice
p66
(I3
I4
NtRp67
ssg23
(dp68
g64
(tsg65
g66
(I0
I1
NtRp69
ssg27
(dp70
g64
(tsg65
g66
(I4
I5
NtRp71
ssg28
(dp72
g64
(tsg65
g66
(I5
I6
NtRp73
ssg29
(dp74
g64
(tsg65
g66
(I6
I7
NtRp75
ssg30
(dp76
g64
(tsg65
g66
(I7
I8
NtRp77
ssg24
(dp78
g64
(tsg65
g66
(I1
I2
NtRp79
ssg31
(dp80
g64
(tsg65
g66
(I8
I9
NtRp81
ssg25
(dp82
g64
(tsg65
g66
(I2
I3
NtRp83
ssg32
(dp84
g64
(tsg65
g66
(I9
I10
NtRp85
sssb.