ccopy_reg
_reconstructor
p1
(castropy.modeling.polynomial
Polynomial2D
p2
c__builtin__
object
p3
NtRp4
(dp5
S'y_domain'
p6
(lp7
I-1
aI1
asS'x_domain'
p8
(lp9
I-1
aI1
asS'_order'
p10
F10
sS'_n_models'
p11
I1
sS'y_window'
p12
(lp13
I-1
aI1
asS'_degree'
p14
I3
sS'_name'
p15
NsS'_parameters'
p16
cnumpy.core.multiarray
_reconstruct
p17
(cnumpy
ndarray
p18
(I0
tS'b'
tRp19
(I1
(I10
tcnumpy
dtype
p20
(S'f8'
I0
I1
tRp21
(I3
S'<'
NNNI-1
I-1
I0
tbI00
S'\xf5a=\x04a\xc2\xea@\xc04\x01d.\xa8\x03@\xe7GzU\x7f^\xd7\xbe}\x91L\xdc\xf8!`\xbe\xa4\xac\n\xb1e\x07\xc0\xc00\xff\xf8\xcd\xb67~@\xc6B\x9e\x08\xfa\xc8%\xc0\xc5xFU\xf2\x7f\xa2?\x1f\xf6K\x0b\xe4.=\xbf>\x91b\xef\x11\xa0\xb8>'
tbsS'_param_names'
p22
(Vc0_0
p23
Vc1_0
p24
Vc2_0
p25
Vc3_0
p26
Vc0_1
p27
Vc0_2
p28
Vc0_3
p29
Vc1_1
p30
Vc1_2
p31
Vc2_1
p32
tp33
sS'_model_set_axis'
p34
I00
sS'x_window'
p35
(lp36
I-1
aI1
asS'param_names'
p37
g33
sS'_constraints'
p38
(dp39
Vineqcons
p40
(lp41
sVeqcons
p42
(lp43
sVbounds
p44
(dp45
g26
(NNtp46
sg23
(NNtp47
sg27
(NNtp48
sg28
(NNtp49
sg29
(NNtp50
sg30
(NNtp51
sg24
(NNtp52
sg31
(NNtp53
sg25
(NNtp54
sg32
(NNtp55
ssVtied
p56
(dp57
g26
I00
sg23
I00
sg27
I00
sg28
I00
sg29
I00
sg30
I00
sg24
I00
sg31
I00
sg25
I00
sg32
I00
ssVfixed
p58
(dp59
g26
I00
sg23
I00
sg27
I00
sg28
I00
sg29
I00
sg30
I00
sg24
I00
sg31
I00
sg25
I00
sg32
I00
sssS'_param_metrics'
p60
ccollections
defaultdict
p61
(c__builtin__
dict
p62
tRp63
g26
(dp64
Vshape
p65
(tsVslice
p66
c__builtin__
slice
p67
(I3
I4
NtRp68
ssg23
(dp69
g65
(tsg66
g67
(I0
I1
NtRp70
ssg27
(dp71
g65
(tsg66
g67
(I4
I5
NtRp72
ssg28
(dp73
g65
(tsg66
g67
(I5
I6
NtRp74
ssg29
(dp75
g65
(tsg66
g67
(I6
I7
NtRp76
ssg30
(dp77
g65
(tsg66
g67
(I7
I8
NtRp78
ssg24
(dp79
g65
(tsg66
g67
(I1
I2
NtRp80
ssg31
(dp81
g65
(tsg66
g67
(I8
I9
NtRp82
ssg25
(dp83
g65
(tsg66
g67
(I2
I3
NtRp84
ssg32
(dp85
g65
(tsg66
g67
(I9
I10
NtRp86
sssb.