ccopy_reg
_reconstructor
p0
(castropy.modeling.polynomial
Polynomial2D
p1
c__builtin__
object
p2
Ntp3
Rp4
(dp5
S'y_domain'
p6
(lp7
I-1
aI1
asS'x_domain'
p8
(lp9
I-1
aI1
asS'_order'
p10
F10.0
sS'_n_models'
p11
I1
sS'y_window'
p12
(lp13
I-1
aI1
asS'_degree'
p14
I3
sS'_name'
p15
NsS'_parameters'
p16
cnumpy.core.multiarray
_reconstruct
p17
(cnumpy
ndarray
p18
(I0
tp19
S'b'
p20
tp21
Rp22
(I1
(I10
tp23
cnumpy
dtype
p24
(S'f8'
p25
I0
I1
tp26
Rp27
(I3
S'<'
p28
NNNI-1
I-1
I0
tp29
bI00
S'\xd87\x81|\xd4Y\xc8@|\x8fO\xdf\x06>\xf3?|_,"\xd1k\xe5>ku\x8a=\x83\xa5O\xbe`\xbfC\x0bc\xc6\x93\xc0\xfcR\x94G\xe1\x17R@C8\xfb0!v\x02\xc02\x97=^\xc4u\x92?\xe2\xac\x04kT@\x10\xbfv\x99\t\x0b\xea\xc6\xa1\xbe'
p30
tp31
bsS'_param_names'
p32
(Vc0_0
p33
Vc1_0
p34
Vc2_0
p35
Vc3_0
p36
Vc0_1
p37
Vc0_2
p38
Vc0_3
p39
Vc1_1
p40
Vc1_2
p41
Vc2_1
p42
tp43
sS'_model_set_axis'
p44
I00
sS'x_window'
p45
(lp46
I-1
aI1
asS'param_names'
p47
g43
sS'_constraints'
p48
(dp49
Vineqcons
p50
(lp51
sVeqcons
p52
(lp53
sVbounds
p54
(dp55
g36
(NNtp56
sg33
(NNtp57
sg37
(NNtp58
sg38
(NNtp59
sg39
(NNtp60
sg40
(NNtp61
sg34
(NNtp62
sg41
(NNtp63
sg35
(NNtp64
sg42
(NNtp65
ssVtied
p66
(dp67
g36
I00
sg33
I00
sg37
I00
sg38
I00
sg39
I00
sg40
I00
sg34
I00
sg41
I00
sg35
I00
sg42
I00
ssVfixed
p68
(dp69
g36
I00
sg33
I00
sg37
I00
sg38
I00
sg39
I00
sg40
I00
sg34
I00
sg41
I00
sg35
I00
sg42
I00
sssS'_param_metrics'
p70
ccollections
defaultdict
p71
(c__builtin__
dict
p72
tp73
Rp74
g36
(dp75
Vshape
p76
(tsVslice
p77
c__builtin__
slice
p78
(I3
I4
Ntp79
Rp80
ssg33
(dp81
g76
(tsg77
g78
(I0
I1
Ntp82
Rp83
ssg37
(dp84
g76
(tsg77
g78
(I4
I5
Ntp85
Rp86
ssg38
(dp87
g76
(tsg77
g78
(I5
I6
Ntp88
Rp89
ssg39
(dp90
g76
(tsg77
g78
(I6
I7
Ntp91
Rp92
ssg40
(dp93
g76
(tsg77
g78
(I7
I8
Ntp94
Rp95
ssg34
(dp96
g76
(tsg77
g78
(I1
I2
Ntp97
Rp98
ssg41
(dp99
g76
(tsg77
g78
(I8
I9
Ntp100
Rp101
ssg35
(dp102
g76
(tsg77
g78
(I2
I3
Ntp103
Rp104
ssg42
(dp105
g76
(tsg77
g78
(I9
I10
Ntp106
Rp107
sssb.